; Function Attrs: nounwind uwtable
define ptr @l_Array_mapMUnsafe_map___at_Lean_Compiler_LCNF_JoinPointContextExtender_extend_go___spec__6___boxed(ptr noundef %0, ptr noundef %1, ptr noundef %2, ptr noundef %3, ptr noundef %4, ptr noundef %5, ptr noundef %6, ptr noundef %7, ptr noundef %8, ptr noundef %9, ptr noundef %10, ptr noundef %11) local_unnamed_addr #1 {
  %13 = getelementptr i8, ptr %1, i64 8
  %.val19 = load i64, ptr %13, align 8, !tbaa !12
  %14 = ptrtoint ptr %1 to i64
  %15 = and i64 %14, 1
  %.not = icmp eq i64 %15, 0
  br i1 %.not, label %16, label %lean_dec.exit16

16:                                               ; preds = %12
  %17 = load i32, ptr %1, align 4, !tbaa !8
  %18 = icmp sgt i32 %17, 1
  br i1 %18, label %19, label %21, !prof !11

19:                                               ; preds = %16
  %20 = add nsw i32 %17, -1
  store i32 %20, ptr %1, align 4, !tbaa !8
  br label %lean_dec.exit16

21:                                               ; preds = %16
  %.not.i = icmp eq i32 %17, 0
  br i1 %.not.i, label %lean_dec.exit16, label %22

22:                                               ; preds = %21
  tail call void @lean_dec_ref_cold(ptr noundef nonnull %1) #5
  br label %lean_dec.exit16

lean_dec.exit16:                                  ; preds = %22, %21, %19, %12
  %23 = getelementptr i8, ptr %2, i64 8
  %.val = load i64, ptr %23, align 8, !tbaa !12
  %24 = ptrtoint ptr %2 to i64
  %25 = and i64 %24, 1
  %.not20 = icmp eq i64 %25, 0
  br i1 %.not20, label %26, label %lean_dec.exit

26:                                               ; preds = %lean_dec.exit16
  %27 = load i32, ptr %2, align 4, !tbaa !8
  %28 = icmp sgt i32 %27, 1
  br i1 %28, label %29, label %31, !prof !11

29:                                               ; preds = %26
  %30 = add nsw i32 %27, -1
  store i32 %30, ptr %2, align 4, !tbaa !8
  br label %lean_dec.exit

31:                                               ; preds = %26
  %.not.i17 = icmp eq i32 %27, 0
  br i1 %.not.i17, label %lean_dec.exit, label %32

32:                                               ; preds = %31
  tail call void @lean_dec_ref_cold(ptr noundef nonnull %2) #5
  br label %lean_dec.exit

lean_dec.exit:                                    ; preds = %32, %31, %29, %lean_dec.exit16
  %33 = tail call ptr @l_Array_mapMUnsafe_map___at_Lean_Compiler_LCNF_JoinPointContextExtender_extend_go___spec__6(ptr noundef %0, i64 noundef %.val19, i64 noundef %.val, ptr noundef %3, ptr noundef %4, ptr noundef %5, ptr noundef %6, ptr noundef %7, ptr noundef %8, ptr noundef %9, ptr noundef %10, ptr noundef %11)
  ret ptr %33
}